; Function Attrs: mustprogress uwtable
define hidden noundef zeroext i1 @_ZN18OpenImageIO_v2_6_08DPXInput5closeEv(ptr noundef nonnull align 8 dereferenceable(2400) %this) unnamed_addr #5 align 2 personality ptr @__gxx_personality_v0 {
entry:
  %m_subimage.i = getelementptr inbounds i8, ptr %this, i64 184
  store i32 -1, ptr %m_subimage.i, align 8
  %m_stream.i = getelementptr inbounds i8, ptr %this, i64 192
  %0 = load ptr, ptr %m_stream.i, align 8
  %tobool.not.i = icmp eq ptr %0, null
  br i1 %tobool.not.i, label %if.end.i, label %delete.notnull.i

delete.notnull.i:                                 ; preds = %entry
  %vtable.i = load ptr, ptr %0, align 8
  %vfn.i = getelementptr inbounds i8, ptr %vtable.i, i64 8
  %1 = load ptr, ptr %vfn.i, align 8
  tail call void %1(ptr noundef nonnull align 8 dereferenceable(16) %0) #21
  store ptr null, ptr %m_stream.i, align 8
  %m_dpx.i = getelementptr inbounds i8, ptr %this, i64 200
  tail call void @_ZN3dpx6Reader11SetInStreamEP8InStream(ptr noundef nonnull align 8 dereferenceable(2144) %m_dpx.i, ptr noundef null)
  br label %if.end.i

if.end.i:                                         ; preds = %delete.notnull.i, %entry
  %m_userBuf.i = getelementptr inbounds i8, ptr %this, i64 2344
  %2 = load ptr, ptr %m_userBuf.i, align 8
  %_M_finish.i.i.i = getelementptr inbounds i8, ptr %this, i64 2352
  %3 = load ptr, ptr %_M_finish.i.i.i, align 8
  %tobool.not.i.i.i = icmp eq ptr %3, %2
  br i1 %tobool.not.i.i.i, label %_ZN18OpenImageIO_v2_6_08DPXInput4initEv.exit, label %invoke.cont.i.i.i

invoke.cont.i.i.i:                                ; preds = %if.end.i
  store ptr %2, ptr %_M_finish.i.i.i, align 8
  br label %_ZN18OpenImageIO_v2_6_08DPXInput4initEv.exit

_ZN18OpenImageIO_v2_6_08DPXInput4initEv.exit:     ; preds = %if.end.i, %invoke.cont.i.i.i
  %m_rawcolor.i = getelementptr inbounds i8, ptr %this, i64 2368
  store i8 0, ptr %m_rawcolor.i, align 8
  tail call void @_ZN18OpenImageIO_v2_6_010ImageInput13ioproxy_clearEv(ptr noundef nonnull align 8 dereferenceable(184) %this)
  ret i1 true
}